target datalayout = "e-m:e-p270:32:32-p271:32:32-p272:64:64-i64:64-i128:128-f80:128-n8:16:32:64-S128"
target triple = "x86_64-pc-linux-gnu"

%struct.AVFilterContext = type { ptr, ptr, ptr, ptr, ptr, i32, ptr, ptr, i32, ptr, ptr, i32, i32, ptr, ptr, ptr, ptr, i32, ptr, i32, i32 }
%struct.DynamicAudioNormalizerContext = type { ptr, %struct.FFBufQueue, i32, i32, i32, i32, i32, i32, double, ptr, double, double, double, double, double, ptr, ptr, ptr, ptr, i32, i32, i32, ptr, %struct.AVChannelLayout, i64, ptr, ptr, ptr, ptr, ptr, ptr, ptr, [6 x double] }
%struct.FFBufQueue = type { [302 x ptr], i16, i16 }
%struct.AVChannelLayout = type { i32, i32, %union.anon.1, ptr }
%union.anon.1 = type { i64 }
%struct.local_gain = type { double, double }

; Function Attrs: nounwind uwtable
define internal i32 @update_gain_histories(ptr noundef %0, ptr noundef %1, i32 noundef %2, i32 noundef %3) #1 {
  %5 = alloca ptr, align 8
  %6 = alloca ptr, align 8
  %7 = alloca i32, align 4
  %8 = alloca i32, align 4
  %9 = alloca ptr, align 8
  %10 = alloca ptr, align 8
  %11 = alloca i32, align 4
  %12 = alloca i32, align 4
  %13 = alloca i32, align 4
  %14 = alloca i32, align 4
  %15 = alloca %struct.local_gain, align 8
  store ptr %0, ptr %5, align 8, !tbaa !4
  store ptr %1, ptr %6, align 8, !tbaa !112
  store i32 %2, ptr %7, align 4, !tbaa !35
  store i32 %3, ptr %8, align 4, !tbaa !35
  call void @llvm.lifetime.start.p0(i64 8, ptr %9) #11
  %16 = load ptr, ptr %5, align 8, !tbaa !4
  %17 = getelementptr inbounds nuw %struct.AVFilterContext, ptr %16, i32 0, i32 9
  %18 = load ptr, ptr %17, align 8, !tbaa !9
  store ptr %18, ptr %9, align 8, !tbaa !22
  call void @llvm.lifetime.start.p0(i64 8, ptr %10) #11
  %19 = load ptr, ptr %6, align 8, !tbaa !112
  store ptr %19, ptr %10, align 8, !tbaa !64
  call void @llvm.lifetime.start.p0(i64 4, ptr %11) #11
  %20 = load ptr, ptr %9, align 8, !tbaa !22
  %21 = getelementptr inbounds nuw %struct.DynamicAudioNormalizerContext, ptr %20, i32 0, i32 19
  %22 = load i32, ptr %21, align 8, !tbaa !36
  store i32 %22, ptr %11, align 4, !tbaa !35
  call void @llvm.lifetime.start.p0(i64 4, ptr %12) #11
  %23 = load i32, ptr %11, align 4, !tbaa !35
  %24 = load i32, ptr %7, align 4, !tbaa !35
  %25 = mul nsw i32 %23, %24
  %26 = load i32, ptr %8, align 4, !tbaa !35
  %27 = sdiv i32 %25, %26
  store i32 %27, ptr %12, align 4, !tbaa !35
  call void @llvm.lifetime.start.p0(i64 4, ptr %13) #11
  %28 = load i32, ptr %11, align 4, !tbaa !35
  %29 = load i32, ptr %7, align 4, !tbaa !35
  %30 = add nsw i32 %29, 1
  %31 = mul nsw i32 %28, %30
  %32 = load i32, ptr %8, align 4, !tbaa !35
  %33 = sdiv i32 %31, %32
  store i32 %33, ptr %13, align 4, !tbaa !35
  call void @llvm.lifetime.start.p0(i64 4, ptr %14) #11
  %34 = load i32, ptr %12, align 4, !tbaa !35
  store i32 %34, ptr %14, align 4, !tbaa !35
  br label %35

35:                                               ; preds = %55, %4
  %36 = load i32, ptr %14, align 4, !tbaa !35
  %37 = load i32, ptr %13, align 4, !tbaa !35
  %38 = icmp slt i32 %36, %37
  br i1 %38, label %40, label %39

39:                                               ; preds = %35
  call void @llvm.lifetime.end.p0(i64 4, ptr %14) #11
  br label %58

40:                                               ; preds = %35
  %41 = load ptr, ptr %9, align 8, !tbaa !22
  %42 = load i32, ptr %14, align 4, !tbaa !35
  %43 = load ptr, ptr %9, align 8, !tbaa !22
  %44 = load ptr, ptr %10, align 8, !tbaa !64
  %45 = load i32, ptr %14, align 4, !tbaa !35
  %46 = call nsz { double, double } @get_max_local_gain(ptr noundef %43, ptr noundef %44, i32 noundef %45)
  %47 = getelementptr inbounds nuw { double, double }, ptr %15, i32 0, i32 0
  %48 = extractvalue { double, double } %46, 0
  store double %48, ptr %47, align 8
  %49 = getelementptr inbounds nuw { double, double }, ptr %15, i32 0, i32 1
  %50 = extractvalue { double, double } %46, 1
  store double %50, ptr %49, align 8
  %51 = getelementptr inbounds nuw { double, double }, ptr %15, i32 0, i32 0
  %52 = load double, ptr %51, align 8
  %53 = getelementptr inbounds nuw { double, double }, ptr %15, i32 0, i32 1
  %54 = load double, ptr %53, align 8
  call void @update_gain_history(ptr noundef %41, i32 noundef %42, double %52, double %54)
  br label %55

55:                                               ; preds = %40
  %56 = load i32, ptr %14, align 4, !tbaa !35
  %57 = add nsw i32 %56, 1
  store i32 %57, ptr %14, align 4, !tbaa !35
  br label %35, !llvm.loop !149

58:                                               ; preds = %39
  call void @llvm.lifetime.end.p0(i64 4, ptr %13) #11
  call void @llvm.lifetime.end.p0(i64 4, ptr %12) #11
  call void @llvm.lifetime.end.p0(i64 4, ptr %11) #11
  call void @llvm.lifetime.end.p0(i64 8, ptr %10) #11
  call void @llvm.lifetime.end.p0(i64 8, ptr %9) #11
  ret i32 0
}