; Function Attrs: nounwind uwtable
define internal noundef i32 @update_gain_histories(ptr noundef readonly captures(none) %0, ptr noundef readonly captures(none) %1, i32 noundef %2, i32 noundef %3) #1 {
  %5 = getelementptr inbounds nuw i8, ptr %0, i64 72
  %6 = load ptr, ptr %5, align 8, !tbaa !4
  %7 = getelementptr inbounds nuw i8, ptr %6, i64 2544
  %8 = load i32, ptr %7, align 8, !tbaa !31
  %9 = mul nsw i32 %8, %2
  %10 = sdiv i32 %9, %3
  %11 = add nsw i32 %2, 1
  %12 = mul nsw i32 %8, %11
  %13 = sdiv i32 %12, %3
  %14 = icmp slt i32 %10, %13
  br i1 %14, label %.lr.ph, label %._crit_edge

._crit_edge:                                      ; preds = %.lr.ph, %4
  ret i32 0

.lr.ph:                                           ; preds = %4, %.lr.ph
  %.017 = phi i32 [ %18, %.lr.ph ], [ %10, %4 ]
  %15 = tail call nsz fastcc { double, double } @get_max_local_gain(ptr noundef nonnull %6, ptr noundef %1, i32 noundef %.017)
  %16 = extractvalue { double, double } %15, 0
  %17 = extractvalue { double, double } %15, 1
  tail call fastcc void @update_gain_history(ptr noundef nonnull %6, i32 noundef %.017, double %16, double %17)
  %18 = add i32 %.017, 1
  %exitcond.not = icmp eq i32 %18, %13
  br i1 %exitcond.not, label %._crit_edge, label %.lr.ph, !llvm.loop !144
}